; Function Attrs: nounwind uwtable
define ptr @l_Lean_Server_Test_Cancel_initFn____x40_Lean_Server_Test_Cancel___hyg_4_(ptr noundef %0) local_unnamed_addr #0 {
  %2 = tail call ptr @lean_st_mk_ref(ptr noundef nonnull inttoptr (i64 1 to ptr), ptr noundef %0) #6
  %.val = load i32, ptr %2, align 4, !tbaa !4
  %3 = icmp eq i32 %.val, 1
  br i1 %3, label %40, label %4

4:                                                ; preds = %1
  %5 = getelementptr inbounds nuw i8, ptr %2, i64 8
  %6 = load ptr, ptr %5, align 8, !tbaa !9
  %7 = getelementptr inbounds nuw i8, ptr %2, i64 16
  %8 = load ptr, ptr %7, align 8, !tbaa !9
  %9 = ptrtoint ptr %8 to i64
  %10 = and i64 %9, 1
  %.not = icmp eq i64 %10, 0
  br i1 %.not, label %11, label %lean_inc.exit

11:                                               ; preds = %4
  %.val.i = load i32, ptr %8, align 4, !tbaa !4
  %12 = icmp sgt i32 %.val.i, 0
  br i1 %12, label %13, label %15, !prof !11

13:                                               ; preds = %11
  %14 = add nuw i32 %.val.i, 1
  store i32 %14, ptr %8, align 4, !tbaa !4
  br label %lean_inc.exit

15:                                               ; preds = %11
  %.not.i16 = icmp eq i32 %.val.i, 0
  br i1 %.not.i16, label %lean_inc.exit, label %16

16:                                               ; preds = %15
  tail call void @lean_inc_ref_cold(ptr noundef nonnull %8) #6
  br label %lean_inc.exit

lean_inc.exit:                                    ; preds = %16, %15, %13, %4
  %17 = ptrtoint ptr %6 to i64
  %18 = and i64 %17, 1
  %.not20 = icmp eq i64 %18, 0
  br i1 %.not20, label %19, label %lean_inc.exit15

19:                                               ; preds = %lean_inc.exit
  %.val.i17 = load i32, ptr %6, align 4, !tbaa !4
  %20 = icmp sgt i32 %.val.i17, 0
  br i1 %20, label %21, label %23, !prof !11

21:                                               ; preds = %19
  %22 = add nuw i32 %.val.i17, 1
  store i32 %22, ptr %6, align 4, !tbaa !4
  br label %lean_inc.exit15

23:                                               ; preds = %19
  %.not.i18 = icmp eq i32 %.val.i17, 0
  br i1 %.not.i18, label %lean_inc.exit15, label %24

24:                                               ; preds = %23
  tail call void @lean_inc_ref_cold(ptr noundef nonnull %6) #6
  br label %lean_inc.exit15

lean_inc.exit15:                                  ; preds = %24, %23, %21, %lean_inc.exit
  %25 = ptrtoint ptr %2 to i64
  %26 = and i64 %25, 1
  %.not21 = icmp eq i64 %26, 0
  br i1 %.not21, label %27, label %lean_dec.exit

27:                                               ; preds = %lean_inc.exit15
  %28 = load i32, ptr %2, align 4, !tbaa !4
  %29 = icmp sgt i32 %28, 1
  br i1 %29, label %30, label %32, !prof !11

30:                                               ; preds = %27
  %31 = add nsw i32 %28, -1
  store i32 %31, ptr %2, align 4, !tbaa !4
  br label %lean_dec.exit

32:                                               ; preds = %27
  %.not.i = icmp eq i32 %28, 0
  br i1 %.not.i, label %lean_dec.exit, label %33

33:                                               ; preds = %32
  tail call void @lean_dec_ref_cold(ptr noundef nonnull %2) #6
  br label %lean_dec.exit

lean_dec.exit:                                    ; preds = %33, %32, %30, %lean_inc.exit15
  tail call void @lean_inc_heartbeat() #6
  %34 = tail call noalias ptr @mi_malloc_small(i64 noundef 24) #6
  %35 = icmp eq ptr %34, null
  br i1 %35, label %36, label %lean_alloc_ctor.exit

36:                                               ; preds = %lean_dec.exit
  tail call void @lean_internal_panic_out_of_memory() #7
  unreachable

lean_alloc_ctor.exit:                             ; preds = %lean_dec.exit
  %37 = getelementptr inbounds nuw i8, ptr %34, i64 4
  store i32 1, ptr %34, align 4, !tbaa !4
  store i32 131096, ptr %37, align 4
  %38 = getelementptr inbounds nuw i8, ptr %34, i64 8
  store ptr %6, ptr %38, align 8, !tbaa !9
  %39 = getelementptr inbounds nuw i8, ptr %34, i64 16
  store ptr %8, ptr %39, align 8, !tbaa !9
  br label %40

40:                                               ; preds = %1, %lean_alloc_ctor.exit
  %.0 = phi ptr [ %34, %lean_alloc_ctor.exit ], [ %2, %1 ]
  ret ptr %.0
}